; Function Attrs: mustprogress uwtable
define noundef i64 @_ZN9grpc_core34StatefulSessionServiceConfigParser11ParserIndexEv() local_unnamed_addr #3 align 2 personality ptr @__gxx_personality_v0 {
  %1 = load atomic i64, ptr @_ZN9grpc_core17CoreConfiguration7config_E acquire, align 8
  %.0.i.i.i = inttoptr i64 %1 to ptr
  %.not.i = icmp eq i64 %1, 0
  br i1 %.not.i, label %2, label %_ZN9grpc_core17CoreConfiguration3GetEv.exit

2:                                                ; preds = %0
  %3 = tail call noundef nonnull align 8 dereferenceable(776) ptr @_ZN9grpc_core17CoreConfiguration19BuildNewAndMaybeSetEv()
  br label %_ZN9grpc_core17CoreConfiguration3GetEv.exit

_ZN9grpc_core17CoreConfiguration3GetEv.exit:      ; preds = %0, %2
  %.0.i = phi ptr [ %3, %2 ], [ %.0.i.i.i, %0 ]
  %4 = getelementptr inbounds nuw i8, ptr %.0.i, i64 552
  %5 = tail call noundef i64 @_ZNK9grpc_core19ServiceConfigParser14GetParserIndexESt17basic_string_viewIcSt11char_traitsIcEE(ptr noundef nonnull align 8 dereferenceable(24) %4, i64 16, ptr nonnull @.str.5)
  ret i64 %5
}